; Function Attrs: mustprogress nofree norecurse nosync nounwind memory(write, argmem: readwrite, inaccessiblemem: none) uwtable
define internal void @_ZN5faiss12_GLOBAL__N_114IVFSQScannerL2INS0_20DistanceComputerByteINS0_12SimilarityL2ILi1EEELi1EEELi0EE9set_queryEPKf(ptr nocapture noundef nonnull align 8 dereferenceable(152) %0, ptr noundef %1) unnamed_addr #21 align 2 {
  %3 = getelementptr inbounds i8, ptr %0, i64 120
  store ptr %1, ptr %3, align 8
  %4 = getelementptr inbounds i8, ptr %0, i64 112
  %5 = load ptr, ptr %4, align 8
  %.not = icmp eq ptr %5, null
  br i1 %.not, label %6, label %_ZN5faiss12_GLOBAL__N_120DistanceComputerByteINS0_12SimilarityL2ILi1EEELi1EE9set_queryEPKf.exit

6:                                                ; preds = %2
  %7 = getelementptr inbounds i8, ptr %0, i64 72
  %8 = load i32, ptr %7, align 8
  %9 = icmp sgt i32 %8, 0
  br i1 %9, label %.lr.ph.i, label %_ZN5faiss12_GLOBAL__N_120DistanceComputerByteINS0_12SimilarityL2ILi1EEELi1EE9set_queryEPKf.exit

.lr.ph.i:                                         ; preds = %6
  %10 = getelementptr inbounds i8, ptr %0, i64 80
  br label %11

11:                                               ; preds = %11, %.lr.ph.i
  %indvars.iv.i = phi i64 [ 0, %.lr.ph.i ], [ %indvars.iv.next.i, %11 ]
  %12 = getelementptr inbounds float, ptr %1, i64 %indvars.iv.i
  %13 = load float, ptr %12, align 4
  %14 = fptosi float %13 to i32
  %15 = trunc i32 %14 to i8
  %16 = load ptr, ptr %10, align 8
  %17 = getelementptr inbounds i8, ptr %16, i64 %indvars.iv.i
  store i8 %15, ptr %17, align 1
  %indvars.iv.next.i = add nuw nsw i64 %indvars.iv.i, 1
  %18 = load i32, ptr %7, align 8
  %19 = sext i32 %18 to i64
  %20 = icmp slt i64 %indvars.iv.next.i, %19
  br i1 %20, label %11, label %_ZN5faiss12_GLOBAL__N_120DistanceComputerByteINS0_12SimilarityL2ILi1EEELi1EE9set_queryEPKf.exit, !llvm.loop !56

_ZN5faiss12_GLOBAL__N_120DistanceComputerByteINS0_12SimilarityL2ILi1EEELi1EE9set_queryEPKf.exit: ; preds = %11, %6, %2
  ret void
}